target datalayout = "e-m:e-p270:32:32-p271:32:32-p272:64:64-i64:64-i128:128-f80:128-n8:16:32:64-S128"
target triple = "x86_64-pc-linux-gnu"

%class.Register = type { i32 }
%class.XMMRegister = type { i32 }
%class.Address = type { %class.Register, %class.Register, %class.XMMRegister, i32, i32, i8, [3 x i8], %class.RelocationHolder }
%class.RelocationHolder = type { [40 x i8] }
%class.StubCodeGenerator = type { ptr, i8, ptr }
%class.Relocation = type <{ ptr, ptr, i32, [4 x i8] }>
%class.anon = type { i8 }
%class.oopDesc = type { %class.markWord, %"union.oopDesc::_metadata" }
%class.markWord = type { i64 }
%"union.oopDesc::_metadata" = type { ptr }

@_ZL5noreg = internal constant %class.Register { i32 -1 }, align 4
@_ZL6xnoreg = internal constant %class.XMMRegister { i32 -1 }, align 4
@_ZTV10Relocation = external unnamed_addr constant { [11 x ptr] }, align 8
@UseCompressedClassPointers = external global i8, align 1

; Function Attrs: mustprogress nounwind uwtable
define linkonce_odr hidden void @_ZN10RelocationC2EN9relocInfo9relocTypeE(ptr noundef nonnull align 8 dereferenceable(20) %0, i32 noundef %1) unnamed_addr #1 comdat align 2 {
  %3 = alloca ptr, align 8
  %4 = alloca i32, align 4
  store ptr %0, ptr %3, align 8
  store i32 %1, ptr %4, align 4
  %5 = load ptr, ptr %3, align 8
  store ptr getelementptr inbounds inrange(-16, 72) ({ [11 x ptr] }, ptr @_ZTV10Relocation, i32 0, i32 0, i32 2), ptr %5, align 8
  %6 = getelementptr inbounds %class.Relocation, ptr %5, i32 0, i32 1
  store ptr null, ptr %6, align 8
  %7 = getelementptr inbounds %class.Relocation, ptr %5, i32 0, i32 2
  %8 = load i32, ptr %4, align 4
  store i32 %8, ptr %7, align 8
  ret void
}

; Function Attrs: mustprogress nounwind uwtable
define linkonce_odr hidden void @_ZN10RelocationC2Ev(ptr noundef nonnull align 8 dereferenceable(20) %0) unnamed_addr #1 comdat align 2 {
  %2 = alloca ptr, align 8
  store ptr %0, ptr %2, align 8
  %3 = load ptr, ptr %2, align 8
  call void @_ZN10RelocationC2EN9relocInfo9relocTypeE(ptr noundef nonnull align 8 dereferenceable(20) %3, i32 noundef 0)
  ret void
}

; Function Attrs: mustprogress nounwind uwtable
define linkonce_odr hidden void @_ZN16RelocationHolder18emplace_relocationI10RelocationJEEEvDpRKT0_(ptr noundef nonnull align 8 dereferenceable(40) %0) #1 comdat align 2 {
  %2 = alloca ptr, align 8
  %3 = alloca ptr, align 8
  store ptr %0, ptr %2, align 8
  %4 = load ptr, ptr %2, align 8
  %5 = getelementptr inbounds %class.RelocationHolder, ptr %4, i32 0, i32 0
  %6 = getelementptr inbounds [40 x i8], ptr %5, i64 0, i64 0
  call void @_ZN10RelocationC2Ev(ptr noundef nonnull align 8 dereferenceable(20) %6)
  store ptr %6, ptr %3, align 8
  ret void
}

; Function Attrs: mustprogress nounwind uwtable
define linkonce_odr hidden noundef i64 @_ZZN7oopDesc21klass_offset_in_bytesEvENKUlvE_clEv(ptr noundef nonnull align 1 dereferenceable(1) %0) #1 comdat align 2 {
  %2 = alloca ptr, align 8
  %3 = alloca [16 x i8], align 16
  %4 = alloca ptr, align 8
  %5 = alloca ptr, align 8
  store ptr %0, ptr %2, align 8
  %6 = getelementptr inbounds [16 x i8], ptr %3, i64 0, i64 0
  store ptr %6, ptr %4, align 8
  %7 = load ptr, ptr %4, align 8
  %8 = getelementptr inbounds %class.oopDesc, ptr %7, i32 0, i32 1
  store ptr %8, ptr %5, align 8
  %9 = load ptr, ptr %5, align 8
  %10 = getelementptr inbounds [16 x i8], ptr %3, i64 0, i64 0
  %11 = ptrtoint ptr %9 to i64
  %12 = ptrtoint ptr %10 to i64
  %13 = sub i64 %11, %12
  ret i64 %13
}

; Function Attrs: mustprogress nounwind uwtable
define linkonce_odr hidden void @_ZN16RelocationHolderC2I10RelocationJEEENS_9ConstructIT_EEDpRKT0_(ptr noundef nonnull align 8 dereferenceable(40) %0) unnamed_addr #1 comdat align 2 {
  %2 = alloca ptr, align 8
  store ptr %0, ptr %2, align 8
  %3 = load ptr, ptr %2, align 8
  call void @_ZN16RelocationHolder18emplace_relocationI10RelocationJEEEvDpRKT0_(ptr noundef nonnull align 8 dereferenceable(40) %3)
  ret void
}

; Function Attrs: mustprogress nounwind uwtable
define linkonce_odr hidden noundef i32 @_ZN7oopDesc21klass_offset_in_bytesEv() #1 comdat align 2 {
  %1 = alloca %class.anon, align 1
  %2 = call noundef i64 @_ZZN7oopDesc21klass_offset_in_bytesEvENKUlvE_clEv(ptr noundef nonnull align 1 dereferenceable(1) %1)
  %3 = trunc i64 %2 to i32
  ret i32 %3
}

; Function Attrs: mustprogress nounwind uwtable
define linkonce_odr hidden void @_ZN16RelocationHolderC2Ev(ptr noundef nonnull align 8 dereferenceable(40) %0) unnamed_addr #1 comdat align 2 {
  %2 = alloca ptr, align 8
  store ptr %0, ptr %2, align 8
  %3 = load ptr, ptr %2, align 8
  call void @_ZN16RelocationHolderC2I10RelocationJEEENS_9ConstructIT_EEDpRKT0_(ptr noundef nonnull align 8 dereferenceable(40) %3)
  ret void
}

; Function Attrs: mustprogress nounwind uwtable
define linkonce_odr hidden noundef i32 @_ZN7oopDesc25klass_gap_offset_in_bytesEv() #1 comdat align 2 {
  %1 = call noundef i32 @_ZN7oopDesc21klass_offset_in_bytesEv()
  %2 = sext i32 %1 to i64
  %3 = add i64 %2, 4
  %4 = trunc i64 %3 to i32
  ret i32 %4
}

; Function Attrs: mustprogress nounwind uwtable
define linkonce_odr hidden void @_ZN7AddressC2E8Registeri(ptr noundef nonnull align 8 dereferenceable(64) %0, i32 %1, i32 noundef %2) unnamed_addr #1 comdat align 2 {
  %4 = alloca %class.Register, align 4
  %5 = alloca ptr, align 8
  %6 = alloca i32, align 4
  %7 = getelementptr inbounds %class.Register, ptr %4, i32 0, i32 0
  store i32 %1, ptr %7, align 4
  store ptr %0, ptr %5, align 8
  store i32 %2, ptr %6, align 4
  %8 = load ptr, ptr %5, align 8
  %9 = getelementptr inbounds %class.Address, ptr %8, i32 0, i32 0
  call void @llvm.memcpy.p0.p0.i64(ptr align 8 %9, ptr align 4 %4, i64 4, i1 false)
  %10 = getelementptr inbounds %class.Address, ptr %8, i32 0, i32 1
  call void @llvm.memcpy.p0.p0.i64(ptr align 4 %10, ptr align 4 @_ZL5noreg, i64 4, i1 false)
  %11 = getelementptr inbounds %class.Address, ptr %8, i32 0, i32 2
  call void @llvm.memcpy.p0.p0.i64(ptr align 8 %11, ptr align 4 @_ZL6xnoreg, i64 4, i1 false)
  %12 = getelementptr inbounds %class.Address, ptr %8, i32 0, i32 3
  store i32 -1, ptr %12, align 4
  %13 = getelementptr inbounds %class.Address, ptr %8, i32 0, i32 4
  %14 = load i32, ptr %6, align 4
  store i32 %14, ptr %13, align 8
  %15 = getelementptr inbounds %class.Address, ptr %8, i32 0, i32 5
  store i8 0, ptr %15, align 4
  %16 = getelementptr inbounds %class.Address, ptr %8, i32 0, i32 7
  call void @_ZN16RelocationHolderC2Ev(ptr noundef nonnull align 8 dereferenceable(40) %16)
  ret void
}

; Function Attrs: mustprogress nounwind uwtable
define linkonce_odr hidden noundef i32 @_ZN12arrayOopDesc22length_offset_in_bytesEv() #1 comdat align 2 {
  %1 = load i8, ptr @UseCompressedClassPointers, align 1
  %2 = trunc i8 %1 to i1
  br i1 %2, label %3, label %6

3:                                                ; preds = %0
  %4 = call noundef i32 @_ZN7oopDesc25klass_gap_offset_in_bytesEv()
  %5 = sext i32 %4 to i64
  br label %7

6:                                                ; preds = %0
  br label %7

7:                                                ; preds = %6, %3
  %8 = phi i64 [ %5, %3 ], [ 16, %6 ]
  %9 = trunc i64 %8 to i32
  ret i32 %9
}

; Function Attrs: mustprogress nounwind uwtable
define hidden void @_ZN13StubGenerator22arraycopy_range_checksE8RegisterS0_S0_S0_S0_S0_R5Label(ptr noundef nonnull align 8 dereferenceable(24) %0, i32 %1, i32 %2, i32 %3, i32 %4, i32 %5, i32 %6, ptr noundef nonnull align 8 dereferenceable(33) %7) #1 align 2 {
  %9 = alloca %class.Register, align 4
  %10 = alloca %class.Register, align 4
  %11 = alloca %class.Register, align 4
  %12 = alloca %class.Register, align 4
  %13 = alloca %class.Register, align 4
  %14 = alloca %class.Register, align 4
  %15 = alloca ptr, align 8
  %16 = alloca ptr, align 8
  %17 = alloca %class.Register, align 4
  %18 = alloca %class.Register, align 4
  %19 = alloca %class.Register, align 4
  %20 = alloca %class.Register, align 4
  %21 = alloca %class.Register, align 4
  %22 = alloca %class.Address, align 8
  %23 = alloca %class.Register, align 4
  %24 = alloca %class.Register, align 4
  %25 = alloca %class.Register, align 4
  %26 = alloca %class.Register, align 4
  %27 = alloca %class.Register, align 4
  %28 = alloca %class.Register, align 4
  %29 = alloca %class.Address, align 8
  %30 = alloca %class.Register, align 4
  %31 = alloca %class.Register, align 4
  %32 = alloca %class.Register, align 4
  %33 = alloca %class.Register, align 4
  %34 = alloca %class.Register, align 4
  %35 = getelementptr inbounds %class.Register, ptr %9, i32 0, i32 0
  store i32 %1, ptr %35, align 4
  %36 = getelementptr inbounds %class.Register, ptr %10, i32 0, i32 0
  store i32 %2, ptr %36, align 4
  %37 = getelementptr inbounds %class.Register, ptr %11, i32 0, i32 0
  store i32 %3, ptr %37, align 4
  %38 = getelementptr inbounds %class.Register, ptr %12, i32 0, i32 0
  store i32 %4, ptr %38, align 4
  %39 = getelementptr inbounds %class.Register, ptr %13, i32 0, i32 0
  store i32 %5, ptr %39, align 4
  %40 = getelementptr inbounds %class.Register, ptr %14, i32 0, i32 0
  store i32 %6, ptr %40, align 4
  store ptr %0, ptr %15, align 8
  store ptr %7, ptr %16, align 8
  %41 = load ptr, ptr %15, align 8
  %42 = getelementptr inbounds %class.StubCodeGenerator, ptr %41, i32 0, i32 2
  %43 = load ptr, ptr %42, align 8
  call void @llvm.memcpy.p0.p0.i64(ptr align 4 %17, ptr align 4 %14, i64 4, i1 false)
  call void @llvm.memcpy.p0.p0.i64(ptr align 4 %18, ptr align 4 %13, i64 4, i1 false)
  %44 = getelementptr inbounds %class.Register, ptr %17, i32 0, i32 0
  %45 = load i32, ptr %44, align 4
  %46 = getelementptr inbounds %class.Register, ptr %18, i32 0, i32 0
  %47 = load i32, ptr %46, align 4
  call void @_ZN9Assembler4movlE8RegisterS0_(ptr noundef nonnull align 8 dereferenceable(40) %43, i32 %45, i32 %47)
  %48 = getelementptr inbounds %class.StubCodeGenerator, ptr %41, i32 0, i32 2
  %49 = load ptr, ptr %48, align 8
  call void @llvm.memcpy.p0.p0.i64(ptr align 4 %19, ptr align 4 %14, i64 4, i1 false)
  call void @llvm.memcpy.p0.p0.i64(ptr align 4 %20, ptr align 4 %10, i64 4, i1 false)
  %50 = getelementptr inbounds %class.Register, ptr %19, i32 0, i32 0
  %51 = load i32, ptr %50, align 4
  %52 = getelementptr inbounds %class.Register, ptr %20, i32 0, i32 0
  %53 = load i32, ptr %52, align 4
  call void @_ZN9Assembler4addlE8RegisterS0_(ptr noundef nonnull align 8 dereferenceable(40) %49, i32 %51, i32 %53)
  %54 = getelementptr inbounds %class.StubCodeGenerator, ptr %41, i32 0, i32 2
  %55 = load ptr, ptr %54, align 8
  call void @llvm.memcpy.p0.p0.i64(ptr align 4 %21, ptr align 4 %14, i64 4, i1 false)
  call void @llvm.memcpy.p0.p0.i64(ptr align 4 %23, ptr align 4 %9, i64 4, i1 false)
  %56 = call noundef i32 @_ZN12arrayOopDesc22length_offset_in_bytesEv()
  %57 = getelementptr inbounds %class.Register, ptr %23, i32 0, i32 0
  %58 = load i32, ptr %57, align 4
  call void @_ZN7AddressC2E8Registeri(ptr noundef nonnull align 8 dereferenceable(64) %22, i32 %58, i32 noundef %56)
  %59 = getelementptr inbounds %class.Register, ptr %21, i32 0, i32 0
  %60 = load i32, ptr %59, align 4
  call void @_ZN9Assembler4cmplE8Register7Address(ptr noundef nonnull align 8 dereferenceable(40) %55, i32 %60, ptr noundef %22)
  %61 = getelementptr inbounds %class.StubCodeGenerator, ptr %41, i32 0, i32 2
  %62 = load ptr, ptr %61, align 8
  %63 = load ptr, ptr %16, align 8
  call void @_ZN9Assembler3jccENS_9ConditionER5Labelb(ptr noundef nonnull align 8 dereferenceable(40) %62, i32 noundef 7, ptr noundef nonnull align 8 dereferenceable(33) %63, i1 noundef zeroext true)
  %64 = getelementptr inbounds %class.StubCodeGenerator, ptr %41, i32 0, i32 2
  %65 = load ptr, ptr %64, align 8
  call void @llvm.memcpy.p0.p0.i64(ptr align 4 %24, ptr align 4 %14, i64 4, i1 false)
  call void @llvm.memcpy.p0.p0.i64(ptr align 4 %25, ptr align 4 %13, i64 4, i1 false)
  %66 = getelementptr inbounds %class.Register, ptr %24, i32 0, i32 0
  %67 = load i32, ptr %66, align 4
  %68 = getelementptr inbounds %class.Register, ptr %25, i32 0, i32 0
  %69 = load i32, ptr %68, align 4
  call void @_ZN9Assembler4movlE8RegisterS0_(ptr noundef nonnull align 8 dereferenceable(40) %65, i32 %67, i32 %69)
  %70 = getelementptr inbounds %class.StubCodeGenerator, ptr %41, i32 0, i32 2
  %71 = load ptr, ptr %70, align 8
  call void @llvm.memcpy.p0.p0.i64(ptr align 4 %26, ptr align 4 %14, i64 4, i1 false)
  call void @llvm.memcpy.p0.p0.i64(ptr align 4 %27, ptr align 4 %12, i64 4, i1 false)
  %72 = getelementptr inbounds %class.Register, ptr %26, i32 0, i32 0
  %73 = load i32, ptr %72, align 4
  %74 = getelementptr inbounds %class.Register, ptr %27, i32 0, i32 0
  %75 = load i32, ptr %74, align 4
  call void @_ZN9Assembler4addlE8RegisterS0_(ptr noundef nonnull align 8 dereferenceable(40) %71, i32 %73, i32 %75)
  %76 = getelementptr inbounds %class.StubCodeGenerator, ptr %41, i32 0, i32 2
  %77 = load ptr, ptr %76, align 8
  call void @llvm.memcpy.p0.p0.i64(ptr align 4 %28, ptr align 4 %14, i64 4, i1 false)
  call void @llvm.memcpy.p0.p0.i64(ptr align 4 %30, ptr align 4 %11, i64 4, i1 false)
  %78 = call noundef i32 @_ZN12arrayOopDesc22length_offset_in_bytesEv()
  %79 = getelementptr inbounds %class.Register, ptr %30, i32 0, i32 0
  %80 = load i32, ptr %79, align 4
  call void @_ZN7AddressC2E8Registeri(ptr noundef nonnull align 8 dereferenceable(64) %29, i32 %80, i32 noundef %78)
  %81 = getelementptr inbounds %class.Register, ptr %28, i32 0, i32 0
  %82 = load i32, ptr %81, align 4
  call void @_ZN9Assembler4cmplE8Register7Address(ptr noundef nonnull align 8 dereferenceable(40) %77, i32 %82, ptr noundef %29)
  %83 = getelementptr inbounds %class.StubCodeGenerator, ptr %41, i32 0, i32 2
  %84 = load ptr, ptr %83, align 8
  %85 = load ptr, ptr %16, align 8
  call void @_ZN9Assembler3jccENS_9ConditionER5Labelb(ptr noundef nonnull align 8 dereferenceable(40) %84, i32 noundef 7, ptr noundef nonnull align 8 dereferenceable(33) %85, i1 noundef zeroext true)
  %86 = getelementptr inbounds %class.StubCodeGenerator, ptr %41, i32 0, i32 2
  %87 = load ptr, ptr %86, align 8
  call void @llvm.memcpy.p0.p0.i64(ptr align 4 %31, ptr align 4 %10, i64 4, i1 false)
  call void @llvm.memcpy.p0.p0.i64(ptr align 4 %32, ptr align 4 %10, i64 4, i1 false)
  %88 = getelementptr inbounds %class.Register, ptr %31, i32 0, i32 0
  %89 = load i32, ptr %88, align 4
  %90 = getelementptr inbounds %class.Register, ptr %32, i32 0, i32 0
  %91 = load i32, ptr %90, align 4
  call void @_ZN9Assembler6movslqE8RegisterS0_(ptr noundef nonnull align 8 dereferenceable(40) %87, i32 %89, i32 %91)
  %92 = getelementptr inbounds %class.StubCodeGenerator, ptr %41, i32 0, i32 2
  %93 = load ptr, ptr %92, align 8
  call void @llvm.memcpy.p0.p0.i64(ptr align 4 %33, ptr align 4 %12, i64 4, i1 false)
  call void @llvm.memcpy.p0.p0.i64(ptr align 4 %34, ptr align 4 %12, i64 4, i1 false)
  %94 = getelementptr inbounds %class.Register, ptr %33, i32 0, i32 0
  %95 = load i32, ptr %94, align 4
  %96 = getelementptr inbounds %class.Register, ptr %34, i32 0, i32 0
  %97 = load i32, ptr %96, align 4
  call void @_ZN9Assembler6movslqE8RegisterS0_(ptr noundef nonnull align 8 dereferenceable(40) %93, i32 %95, i32 %97)
  ret void
}