; Function Attrs: mustprogress nounwind uwtable
define hidden void @_ZN13StubGenerator22arraycopy_range_checksE8RegisterS0_S0_S0_S0_S0_R5Label(ptr nocapture noundef nonnull readonly align 8 dereferenceable(24) %0, i32 %1, i32 %2, i32 %3, i32 %4, i32 %5, i32 %6, ptr noundef nonnull align 8 dereferenceable(33) %7) local_unnamed_addr #0 align 2 {
  %9 = alloca %class.Address, align 8
  %10 = alloca %class.Address, align 8
  %11 = getelementptr inbounds i8, ptr %0, i64 16
  %12 = load ptr, ptr %11, align 8
  tail call void @_ZN9Assembler4movlE8RegisterS0_(ptr noundef nonnull align 8 dereferenceable(40) %12, i32 %6, i32 %5) #8
  %13 = load ptr, ptr %11, align 8
  tail call void @_ZN9Assembler4addlE8RegisterS0_(ptr noundef nonnull align 8 dereferenceable(40) %13, i32 %6, i32 %2) #8
  %14 = load ptr, ptr %11, align 8
  %15 = load i8, ptr @UseCompressedClassPointers, align 1
  %16 = trunc i8 %15 to i1
  %spec.select.i = select i1 %16, i32 12, i32 16
  store i32 %1, ptr %9, align 8
  %17 = getelementptr inbounds i8, ptr %9, i64 4
  store i32 -1, ptr %17, align 4
  %18 = getelementptr inbounds i8, ptr %9, i64 8
  store i32 -1, ptr %18, align 8
  %19 = getelementptr inbounds i8, ptr %9, i64 12
  store i32 -1, ptr %19, align 4
  %20 = getelementptr inbounds i8, ptr %9, i64 16
  store i32 %spec.select.i, ptr %20, align 8
  %21 = getelementptr inbounds i8, ptr %9, i64 20
  store i8 0, ptr %21, align 4
  %22 = getelementptr inbounds i8, ptr %9, i64 24
  store ptr getelementptr inbounds inrange(-16, 72) (i8, ptr @_ZTV10Relocation, i64 16), ptr %22, align 8
  %23 = getelementptr inbounds i8, ptr %9, i64 32
  store ptr null, ptr %23, align 8
  %24 = getelementptr inbounds i8, ptr %9, i64 40
  store i32 0, ptr %24, align 8
  call void @_ZN9Assembler4cmplE8Register7Address(ptr noundef nonnull align 8 dereferenceable(40) %14, i32 %6, ptr noundef nonnull %9) #8
  %25 = load ptr, ptr %11, align 8
  call void @_ZN9Assembler3jccENS_9ConditionER5Labelb(ptr noundef nonnull align 8 dereferenceable(40) %25, i32 noundef 7, ptr noundef nonnull align 8 dereferenceable(33) %7, i1 noundef zeroext true) #8
  %26 = load ptr, ptr %11, align 8
  call void @_ZN9Assembler4movlE8RegisterS0_(ptr noundef nonnull align 8 dereferenceable(40) %26, i32 %6, i32 %5) #8
  %27 = load ptr, ptr %11, align 8
  call void @_ZN9Assembler4addlE8RegisterS0_(ptr noundef nonnull align 8 dereferenceable(40) %27, i32 %6, i32 %4) #8
  %28 = load ptr, ptr %11, align 8
  %29 = load i8, ptr @UseCompressedClassPointers, align 1
  %30 = trunc i8 %29 to i1
  %spec.select.i34 = select i1 %30, i32 12, i32 16
  store i32 %3, ptr %10, align 8
  %31 = getelementptr inbounds i8, ptr %10, i64 4
  store i32 -1, ptr %31, align 4
  %32 = getelementptr inbounds i8, ptr %10, i64 8
  store i32 -1, ptr %32, align 8
  %33 = getelementptr inbounds i8, ptr %10, i64 12
  store i32 -1, ptr %33, align 4
  %34 = getelementptr inbounds i8, ptr %10, i64 16
  store i32 %spec.select.i34, ptr %34, align 8
  %35 = getelementptr inbounds i8, ptr %10, i64 20
  store i8 0, ptr %35, align 4
  %36 = getelementptr inbounds i8, ptr %10, i64 24
  store ptr getelementptr inbounds inrange(-16, 72) (i8, ptr @_ZTV10Relocation, i64 16), ptr %36, align 8
  %37 = getelementptr inbounds i8, ptr %10, i64 32
  store ptr null, ptr %37, align 8
  %38 = getelementptr inbounds i8, ptr %10, i64 40
  store i32 0, ptr %38, align 8
  call void @_ZN9Assembler4cmplE8Register7Address(ptr noundef nonnull align 8 dereferenceable(40) %28, i32 %6, ptr noundef nonnull %10) #8
  %39 = load ptr, ptr %11, align 8
  call void @_ZN9Assembler3jccENS_9ConditionER5Labelb(ptr noundef nonnull align 8 dereferenceable(40) %39, i32 noundef 7, ptr noundef nonnull align 8 dereferenceable(33) %7, i1 noundef zeroext true) #8
  %40 = load ptr, ptr %11, align 8
  call void @_ZN9Assembler6movslqE8RegisterS0_(ptr noundef nonnull align 8 dereferenceable(40) %40, i32 %2, i32 %2) #8
  %41 = load ptr, ptr %11, align 8
  call void @_ZN9Assembler6movslqE8RegisterS0_(ptr noundef nonnull align 8 dereferenceable(40) %41, i32 %4, i32 %4) #8
  ret void
}